; Function Attrs: mustprogress uwtable
define hidden void @_ZN5osgeo4proj2cs8MeridianC2ERKNS0_6common5AngleE(ptr noundef nonnull align 8 dereferenceable(56) %0, ptr noundef nonnull align 8 dereferenceable(24) %1) unnamed_addr #0 align 2 personality ptr @__gxx_personality_v0 {
  tail call void @_ZN5osgeo4proj6common16IdentifiedObjectC2Ev(ptr noundef nonnull align 8 dereferenceable(40) %0)
  %3 = getelementptr inbounds nuw i8, ptr %0, i64 40
  store ptr getelementptr inbounds nuw inrange(-16, 48) (i8, ptr @_ZTVN5osgeo4proj2cs8MeridianE, i64 16), ptr %0, align 8, !tbaa !3
  %4 = getelementptr inbounds nuw i8, ptr %0, i64 16
  store ptr getelementptr inbounds nuw inrange(-16, 24) (i8, ptr @_ZTVN5osgeo4proj2cs8MeridianE, i64 80), ptr %4, align 8, !tbaa !3
  %5 = getelementptr inbounds nuw i8, ptr %0, i64 24
  store ptr getelementptr inbounds nuw inrange(-16, 24) (i8, ptr @_ZTVN5osgeo4proj2cs8MeridianE, i64 120), ptr %5, align 8, !tbaa !3
  store ptr getelementptr inbounds nuw inrange(-16, 24) (i8, ptr @_ZTVN5osgeo4proj2cs8MeridianE, i64 160), ptr %3, align 8, !tbaa !3
  tail call void @llvm.experimental.noalias.scope.decl(metadata !6)
  %6 = invoke noalias noundef nonnull dereferenceable(24) ptr @_Znwm(i64 noundef 24) #31
          to label %.noexc unwind label %11

.noexc:                                           ; preds = %2
  invoke void @_ZN5osgeo4proj6common5AngleC1ERKS2_(ptr noundef nonnull align 8 dereferenceable(24) %6, ptr noundef nonnull align 8 dereferenceable(24) %1)
          to label %9 unwind label %7, !noalias !6

7:                                                ; preds = %.noexc
  %8 = landingpad { ptr, i32 }
          cleanup
  tail call void @_ZdlPvm(ptr noundef nonnull %6, i64 noundef 24) #32, !noalias !6
  br label %.body

9:                                                ; preds = %.noexc
  %10 = getelementptr inbounds nuw i8, ptr %0, i64 48
  store ptr %6, ptr %10, align 8, !tbaa !9, !alias.scope !6
  ret void

11:                                               ; preds = %2
  %12 = landingpad { ptr, i32 }
          cleanup
  br label %.body

.body:                                            ; preds = %7, %11
  %eh.lpad-body = phi { ptr, i32 } [ %12, %11 ], [ %8, %7 ]
  tail call void @_ZN5osgeo4proj2io15IJSONExportableD2Ev(ptr noundef nonnull align 8 dereferenceable(8) %3) #33
  tail call void @_ZN5osgeo4proj6common16IdentifiedObjectD2Ev(ptr noundef nonnull align 8 dereferenceable(40) %0) #33
  resume { ptr, i32 } %eh.lpad-body
}